; Function Attrs: nounwind uwtable
define internal void @accel_is_file(ptr noundef %0, ptr noundef %1) #0 {
  %3 = tail call fastcc i32 @accel_file_in_cache(ptr noundef %0)
  %.not = icmp eq i32 %3, 0
  br i1 %.not, label %6, label %4

4:                                                ; preds = %2
  %5 = getelementptr inbounds i8, ptr %1, i64 8
  store i32 3, ptr %5, align 8
  br label %8

6:                                                ; preds = %2
  %7 = load ptr, ptr @orig_is_file, align 8
  tail call void %7(ptr noundef %0, ptr noundef %1) #14
  br label %8

8:                                                ; preds = %6, %4
  ret void
}